target datalayout = "e-m:e-p270:32:32-p271:32:32-p272:64:64-i64:64-i128:128-f80:128-n8:16:32:64-S128"
target triple = "x86_64-pc-linux-gnu"

%struct._header_field_info = type { ptr, ptr, i32, i32, ptr, i64, ptr, i32, i32, i32, i32, ptr }

@hf_smb_pipe_byte_param = internal global i32 0, align 4
@hf_smb_pipe_bytes_param = internal global i32 0, align 4

; Function Attrs: null_pointer_is_valid sspstrong uwtable
define internal i32 @add_bytes_param(ptr noundef %0, i32 noundef %1, i32 noundef %2, ptr noundef %3, ptr noundef %4, i32 noundef %5, i32 noundef %6, ptr noundef %7) #0 {
  %9 = alloca ptr, align 8
  %10 = alloca i32, align 4
  %11 = alloca i32, align 4
  %12 = alloca ptr, align 8
  %13 = alloca ptr, align 8
  %14 = alloca i32, align 4
  %15 = alloca i32, align 4
  %16 = alloca ptr, align 8
  %17 = alloca ptr, align 8
  store ptr %0, ptr %9, align 8
  store i32 %1, ptr %10, align 4
  store i32 %2, ptr %11, align 4
  store ptr %3, ptr %12, align 8
  store ptr %4, ptr %13, align 8
  store i32 %5, ptr %14, align 4
  store i32 %6, ptr %15, align 4
  store ptr %7, ptr %16, align 8
  call void @llvm.lifetime.start.p0(i64 8, ptr %17) #7
  %18 = load i32, ptr %15, align 4
  %19 = icmp sgt i32 %18, 0
  br i1 %19, label %20, label %65

20:                                               ; preds = %8
  %21 = load i32, ptr %15, align 4
  %22 = call ptr @proto_registrar_get_nth(i32 noundef %21)
  store ptr %22, ptr %17, align 8
  %23 = load ptr, ptr %17, align 8
  %24 = icmp eq ptr %23, null
  br i1 %24, label %38, label %25

25:                                               ; preds = %20
  %26 = load ptr, ptr %17, align 8
  %27 = getelementptr inbounds nuw %struct._header_field_info, ptr %26, i32 0, i32 2
  %28 = load i32, ptr %27, align 8
  %29 = icmp eq i32 %28, 12
  br i1 %29, label %35, label %30

30:                                               ; preds = %25
  %31 = load ptr, ptr %17, align 8
  %32 = getelementptr inbounds nuw %struct._header_field_info, ptr %31, i32 0, i32 2
  %33 = load i32, ptr %32, align 8
  %34 = icmp eq i32 %33, 4
  br i1 %34, label %35, label %39

35:                                               ; preds = %30, %25
  %36 = load i32, ptr %11, align 4
  %37 = icmp ne i32 %36, 1
  br i1 %37, label %38, label %39

38:                                               ; preds = %35, %20
  call void @except_throw(i64 noundef 1, i64 noundef 3, ptr noundef null) #9
  unreachable

39:                                               ; preds = %35, %30
  %40 = load ptr, ptr %17, align 8
  %41 = getelementptr inbounds nuw %struct._header_field_info, ptr %40, i32 0, i32 2
  %42 = load i32, ptr %41, align 8
  switch i32 %42, label %57 [
    i32 12, label %43
    i32 4, label %43
    i32 26, label %50
  ]

43:                                               ; preds = %39, %39
  %44 = load ptr, ptr %13, align 8
  %45 = load i32, ptr %15, align 4
  %46 = load ptr, ptr %9, align 8
  %47 = load i32, ptr %10, align 4
  %48 = load i32, ptr %11, align 4
  %49 = call ptr @proto_tree_add_item(ptr noundef %44, i32 noundef %45, ptr noundef %46, i32 noundef %47, i32 noundef %48, i32 noundef -2147483648)
  br label %64

50:                                               ; preds = %39
  %51 = load ptr, ptr %13, align 8
  %52 = load i32, ptr %15, align 4
  %53 = load ptr, ptr %9, align 8
  %54 = load i32, ptr %10, align 4
  %55 = load i32, ptr %11, align 4
  %56 = call ptr @proto_tree_add_item(ptr noundef %51, i32 noundef %52, ptr noundef %53, i32 noundef %54, i32 noundef %55, i32 noundef 0)
  br label %64

57:                                               ; preds = %39
  %58 = load ptr, ptr %13, align 8
  %59 = load i32, ptr %15, align 4
  %60 = load ptr, ptr %9, align 8
  %61 = load i32, ptr %10, align 4
  %62 = load i32, ptr %11, align 4
  %63 = call ptr @proto_tree_add_item(ptr noundef %58, i32 noundef %59, ptr noundef %60, i32 noundef %61, i32 noundef %62, i32 noundef 0)
  br label %64

64:                                               ; preds = %57, %50, %43
  br label %83

65:                                               ; preds = %8
  %66 = load i32, ptr %11, align 4
  %67 = icmp eq i32 %66, 1
  br i1 %67, label %68, label %75

68:                                               ; preds = %65
  %69 = load ptr, ptr %13, align 8
  %70 = load i32, ptr @hf_smb_pipe_byte_param, align 4
  %71 = load ptr, ptr %9, align 8
  %72 = load i32, ptr %10, align 4
  %73 = load i32, ptr %11, align 4
  %74 = call ptr @proto_tree_add_item(ptr noundef %69, i32 noundef %70, ptr noundef %71, i32 noundef %72, i32 noundef %73, i32 noundef -2147483648)
  br label %82

75:                                               ; preds = %65
  %76 = load ptr, ptr %13, align 8
  %77 = load i32, ptr @hf_smb_pipe_bytes_param, align 4
  %78 = load ptr, ptr %9, align 8
  %79 = load i32, ptr %10, align 4
  %80 = load i32, ptr %11, align 4
  %81 = call ptr @proto_tree_add_item(ptr noundef %76, i32 noundef %77, ptr noundef %78, i32 noundef %79, i32 noundef %80, i32 noundef 0)
  br label %82

82:                                               ; preds = %75, %68
  br label %83

83:                                               ; preds = %82, %64
  %84 = load i32, ptr %11, align 4
  %85 = load i32, ptr %10, align 4
  %86 = add i32 %85, %84
  store i32 %86, ptr %10, align 4
  %87 = load i32, ptr %10, align 4
  call void @llvm.lifetime.end.p0(i64 8, ptr %17) #7
  ret i32 %87
}