; Function Attrs: null_pointer_is_valid sspstrong uwtable
define internal noundef i32 @add_bytes_param(ptr noundef %0, i32 noundef %1, i32 noundef %2, ptr readnone captures(none) %3, ptr noundef %4, i32 %5, i32 noundef %6, ptr readnone captures(none) %7) #0 {
  %9 = icmp sgt i32 %6, 0
  br i1 %9, label %10, label %28

10:                                               ; preds = %8
  %11 = tail call ptr @proto_registrar_get_nth(i32 noundef %6)
  %12 = icmp eq ptr %11, null
  br i1 %12, label %21, label %13

13:                                               ; preds = %10
  %14 = getelementptr inbounds nuw i8, ptr %11, i64 16
  %15 = load i32, ptr %14, align 8
  %16 = icmp eq i32 %15, 12
  br i1 %16, label %20, label %17

17:                                               ; preds = %13
  %18 = icmp eq i32 %15, 4
  %19 = icmp ne i32 %2, 1
  %or.cond = and i1 %19, %18
  br i1 %or.cond, label %21, label %22

20:                                               ; preds = %13
  %.old1.not = icmp eq i32 %2, 1
  br i1 %.old1.not, label %.thread, label %21

21:                                               ; preds = %17, %20, %10
  tail call void @except_throw(i64 noundef 1, i64 noundef 3, ptr noundef null) #11
  unreachable

22:                                               ; preds = %17
  switch i32 %15, label %26 [
    i32 26, label %24
    i32 4, label %.thread
  ]

.thread:                                          ; preds = %20, %22
  %23 = tail call ptr @proto_tree_add_item(ptr noundef %4, i32 noundef %6, ptr noundef %0, i32 noundef %1, i32 noundef %2, i32 noundef -2147483648)
  br label %36

24:                                               ; preds = %22
  %25 = tail call ptr @proto_tree_add_item(ptr noundef %4, i32 noundef %6, ptr noundef %0, i32 noundef %1, i32 noundef %2, i32 noundef 0)
  br label %36

26:                                               ; preds = %22
  %27 = tail call ptr @proto_tree_add_item(ptr noundef %4, i32 noundef %6, ptr noundef %0, i32 noundef %1, i32 noundef %2, i32 noundef 0)
  br label %36

28:                                               ; preds = %8
  %29 = icmp eq i32 %2, 1
  br i1 %29, label %30, label %33

30:                                               ; preds = %28
  %31 = load i32, ptr @hf_smb_pipe_byte_param, align 4
  %32 = tail call ptr @proto_tree_add_item(ptr noundef %4, i32 noundef %31, ptr noundef %0, i32 noundef %1, i32 noundef 1, i32 noundef -2147483648)
  br label %36

33:                                               ; preds = %28
  %34 = load i32, ptr @hf_smb_pipe_bytes_param, align 4
  %35 = tail call ptr @proto_tree_add_item(ptr noundef %4, i32 noundef %34, ptr noundef %0, i32 noundef %1, i32 noundef %2, i32 noundef 0)
  br label %36

36:                                               ; preds = %30, %33, %.thread, %24, %26
  %37 = add i32 %2, %1
  ret i32 %37
}